target datalayout = "e-m:e-p270:32:32-p271:32:32-p272:64:64-i64:64-i128:128-f80:128-n8:16:32:64-S128"
target triple = "x86_64-pc-linux-gnu"

@__const._ZN12_GLOBAL__N_129gie_unitconvert_selftest_Test8TestBodyEv.args1 = private unnamed_addr constant [55 x i8] c"+proj=unitconvert +t_in=decimalyear +t_out=decimalyear\00", align 16
@__const._ZN12_GLOBAL__N_129gie_unitconvert_selftest_Test8TestBodyEv.args2 = private unnamed_addr constant [49 x i8] c"+proj=unitconvert +t_in=gps_week +t_out=gps_week\00", align 16
@__const._ZN12_GLOBAL__N_129gie_unitconvert_selftest_Test8TestBodyEv.args3 = private unnamed_addr constant [39 x i8] c"+proj=unitconvert +t_in=mjd +t_out=mjd\00", align 16
@__const._ZN12_GLOBAL__N_129gie_unitconvert_selftest_Test8TestBodyEv.args4 = private unnamed_addr constant [52 x i8] c"+proj=unitconvert +t_in=gps_week +t_out=decimalyear\00", align 16
@__const._ZN12_GLOBAL__N_129gie_unitconvert_selftest_Test8TestBodyEv.args5 = private unnamed_addr constant [49 x i8] c"+proj=unitconvert +t_in=yyyymmdd +t_out=yyyymmdd\00", align 16

; Function Attrs: mustprogress uwtable
define internal void @_ZN12_GLOBAL__N_129gie_unitconvert_selftest_Test8TestBodyEv(ptr noundef nonnull align 8 dereferenceable(16) %0) unnamed_addr #6 align 2 {
  %2 = alloca ptr, align 8
  %3 = alloca [55 x i8], align 16
  %4 = alloca double, align 8
  %5 = alloca [49 x i8], align 16
  %6 = alloca double, align 8
  %7 = alloca [39 x i8], align 16
  %8 = alloca double, align 8
  %9 = alloca [52 x i8], align 16
  %10 = alloca double, align 8
  %11 = alloca double, align 8
  %12 = alloca [49 x i8], align 16
  %13 = alloca double, align 8
  store ptr %0, ptr %2, align 8, !tbaa !314
  call void @llvm.lifetime.start.p0(i64 55, ptr %3) #3
  call void @llvm.memcpy.p0.p0.i64(ptr align 16 %3, ptr align 16 @__const._ZN12_GLOBAL__N_129gie_unitconvert_selftest_Test8TestBodyEv.args1, i64 55, i1 false)
  call void @llvm.lifetime.start.p0(i64 8, ptr %4) #3
  store double 2.004250e+03, ptr %4, align 8, !tbaa !88
  call void @llvm.lifetime.start.p0(i64 49, ptr %5) #3
  call void @llvm.memcpy.p0.p0.i64(ptr align 16 %5, ptr align 16 @__const._ZN12_GLOBAL__N_129gie_unitconvert_selftest_Test8TestBodyEv.args2, i64 49, i1 false)
  call void @llvm.lifetime.start.p0(i64 8, ptr %6) #3
  store double 1.782000e+03, ptr %6, align 8, !tbaa !88
  call void @llvm.lifetime.start.p0(i64 39, ptr %7) #3
  call void @llvm.memcpy.p0.p0.i64(ptr align 16 %7, ptr align 16 @__const._ZN12_GLOBAL__N_129gie_unitconvert_selftest_Test8TestBodyEv.args3, i64 39, i1 false)
  call void @llvm.lifetime.start.p0(i64 8, ptr %8) #3
  store double 5.739000e+04, ptr %8, align 8, !tbaa !88
  call void @llvm.lifetime.start.p0(i64 52, ptr %9) #3
  call void @llvm.memcpy.p0.p0.i64(ptr align 16 %9, ptr align 16 @__const._ZN12_GLOBAL__N_129gie_unitconvert_selftest_Test8TestBodyEv.args4, i64 52, i1 false)
  call void @llvm.lifetime.start.p0(i64 8, ptr %10) #3
  store double 0x409D56DB6C3760BF, ptr %10, align 8, !tbaa !88
  call void @llvm.lifetime.start.p0(i64 8, ptr %11) #3
  store double 2.016000e+03, ptr %11, align 8, !tbaa !88
  call void @llvm.lifetime.start.p0(i64 49, ptr %12) #3
  call void @llvm.memcpy.p0.p0.i64(ptr align 16 %12, ptr align 16 @__const._ZN12_GLOBAL__N_129gie_unitconvert_selftest_Test8TestBodyEv.args5, i64 49, i1 false)
  call void @llvm.lifetime.start.p0(i64 8, ptr %13) #3
  store double 0x41733C5930000000, ptr %13, align 8, !tbaa !88
  %14 = getelementptr inbounds [55 x i8], ptr %3, i64 0, i64 0
  %15 = load double, ptr %4, align 8, !tbaa !88
  %16 = load double, ptr %4, align 8, !tbaa !88
  call void @_ZN12_GLOBAL__N_19test_timeEPKcddd(ptr noundef %14, double noundef 0x3EB0C6F7A0B5ED8D, double noundef %15, double noundef %16)
  %17 = getelementptr inbounds [49 x i8], ptr %5, i64 0, i64 0
  %18 = load double, ptr %6, align 8, !tbaa !88
  %19 = load double, ptr %6, align 8, !tbaa !88
  call void @_ZN12_GLOBAL__N_19test_timeEPKcddd(ptr noundef %17, double noundef 0x3EB0C6F7A0B5ED8D, double noundef %18, double noundef %19)
  %20 = getelementptr inbounds [39 x i8], ptr %7, i64 0, i64 0
  %21 = load double, ptr %8, align 8, !tbaa !88
  %22 = load double, ptr %8, align 8, !tbaa !88
  call void @_ZN12_GLOBAL__N_19test_timeEPKcddd(ptr noundef %20, double noundef 0x3EB0C6F7A0B5ED8D, double noundef %21, double noundef %22)
  %23 = getelementptr inbounds [52 x i8], ptr %9, i64 0, i64 0
  %24 = load double, ptr %10, align 8, !tbaa !88
  %25 = load double, ptr %11, align 8, !tbaa !88
  call void @_ZN12_GLOBAL__N_19test_timeEPKcddd(ptr noundef %23, double noundef 0x3EB0C6F7A0B5ED8D, double noundef %24, double noundef %25)
  %26 = getelementptr inbounds [49 x i8], ptr %12, i64 0, i64 0
  %27 = load double, ptr %13, align 8, !tbaa !88
  %28 = load double, ptr %13, align 8, !tbaa !88
  call void @_ZN12_GLOBAL__N_19test_timeEPKcddd(ptr noundef %26, double noundef 0x3EB0C6F7A0B5ED8D, double noundef %27, double noundef %28)
  call void @llvm.lifetime.end.p0(i64 8, ptr %13) #3
  call void @llvm.lifetime.end.p0(i64 49, ptr %12) #3
  call void @llvm.lifetime.end.p0(i64 8, ptr %11) #3
  call void @llvm.lifetime.end.p0(i64 8, ptr %10) #3
  call void @llvm.lifetime.end.p0(i64 52, ptr %9) #3
  call void @llvm.lifetime.end.p0(i64 8, ptr %8) #3
  call void @llvm.lifetime.end.p0(i64 39, ptr %7) #3
  call void @llvm.lifetime.end.p0(i64 8, ptr %6) #3
  call void @llvm.lifetime.end.p0(i64 49, ptr %5) #3
  call void @llvm.lifetime.end.p0(i64 8, ptr %4) #3
  call void @llvm.lifetime.end.p0(i64 55, ptr %3) #3
  ret void
}