; Function Attrs: mustprogress uwtable
define internal void @_ZN12_GLOBAL__N_129gie_unitconvert_selftest_Test8TestBodyEv(ptr nonnull readnone align 8 captures(none) %0) unnamed_addr #4 align 2 {
  %2 = alloca [55 x i8], align 16
  %3 = alloca [49 x i8], align 16
  %4 = alloca [39 x i8], align 16
  %5 = alloca [52 x i8], align 16
  %6 = alloca [49 x i8], align 16
  call void @llvm.lifetime.start.p0(i64 55, ptr nonnull %2) #22
  call void @llvm.memcpy.p0.p0.i64(ptr noundef nonnull align 16 dereferenceable(55) %2, ptr noundef nonnull align 16 dereferenceable(55) @__const._ZN12_GLOBAL__N_129gie_unitconvert_selftest_Test8TestBodyEv.args1, i64 55, i1 false)
  call void @llvm.lifetime.start.p0(i64 49, ptr nonnull %3) #22
  call void @llvm.memcpy.p0.p0.i64(ptr noundef nonnull align 16 dereferenceable(49) %3, ptr noundef nonnull align 16 dereferenceable(49) @__const._ZN12_GLOBAL__N_129gie_unitconvert_selftest_Test8TestBodyEv.args2, i64 49, i1 false)
  call void @llvm.lifetime.start.p0(i64 39, ptr nonnull %4) #22
  call void @llvm.memcpy.p0.p0.i64(ptr noundef nonnull align 16 dereferenceable(39) %4, ptr noundef nonnull align 16 dereferenceable(39) @__const._ZN12_GLOBAL__N_129gie_unitconvert_selftest_Test8TestBodyEv.args3, i64 39, i1 false)
  call void @llvm.lifetime.start.p0(i64 52, ptr nonnull %5) #22
  call void @llvm.memcpy.p0.p0.i64(ptr noundef nonnull align 16 dereferenceable(52) %5, ptr noundef nonnull align 16 dereferenceable(52) @__const._ZN12_GLOBAL__N_129gie_unitconvert_selftest_Test8TestBodyEv.args4, i64 52, i1 false)
  call void @llvm.lifetime.start.p0(i64 49, ptr nonnull %6) #22
  call void @llvm.memcpy.p0.p0.i64(ptr noundef nonnull align 16 dereferenceable(49) %6, ptr noundef nonnull align 16 dereferenceable(49) @__const._ZN12_GLOBAL__N_129gie_unitconvert_selftest_Test8TestBodyEv.args5, i64 49, i1 false)
  call fastcc void @_ZN12_GLOBAL__N_19test_timeEPKcddd(ptr noundef %2, double noundef 2.004250e+03, double noundef 2.004250e+03)
  call fastcc void @_ZN12_GLOBAL__N_19test_timeEPKcddd(ptr noundef %3, double noundef 1.782000e+03, double noundef 1.782000e+03)
  call fastcc void @_ZN12_GLOBAL__N_19test_timeEPKcddd(ptr noundef %4, double noundef 5.739000e+04, double noundef 5.739000e+04)
  call fastcc void @_ZN12_GLOBAL__N_19test_timeEPKcddd(ptr noundef %5, double noundef 0x409D56DB6C3760BF, double noundef 2.016000e+03)
  call fastcc void @_ZN12_GLOBAL__N_19test_timeEPKcddd(ptr noundef %6, double noundef 0x41733C5930000000, double noundef 0x41733C5930000000)
  call void @llvm.lifetime.end.p0(i64 49, ptr nonnull %6) #22
  call void @llvm.lifetime.end.p0(i64 52, ptr nonnull %5) #22
  call void @llvm.lifetime.end.p0(i64 39, ptr nonnull %4) #22
  call void @llvm.lifetime.end.p0(i64 49, ptr nonnull %3) #22
  call void @llvm.lifetime.end.p0(i64 55, ptr nonnull %2) #22
  ret void
}